target datalayout = "e-m:e-p270:32:32-p271:32:32-p272:64:64-i64:64-i128:128-f80:128-n8:16:32:64-S128"
target triple = "x86_64-pc-linux-gnu"

%class.StubCodeMark = type { ptr, ptr }
%class.StubCodeGenerator = type { ptr, i8, ptr }
%class.CodeSection = type { ptr, ptr, ptr, ptr, ptr, ptr, ptr, ptr, i8, i8, i32, i8, ptr }
%class.AbstractAssembler = type { ptr, ptr, ptr }

@.str = private unnamed_addr constant [13 x i8] c"StubRoutines\00", align 1
@CodeEntryAlignment = external global i64, align 8

; Function Attrs: mustprogress nounwind uwtable
define linkonce_odr hidden noundef ptr @_ZNK11CodeSection3endEv(ptr noundef nonnull align 8 dereferenceable(88) %0) #1 comdat align 2 {
  %2 = alloca ptr, align 8
  store ptr %0, ptr %2, align 8
  %3 = load ptr, ptr %2, align 8
  %4 = getelementptr inbounds %class.CodeSection, ptr %3, i32 0, i32 2
  %5 = load ptr, ptr %4, align 8
  ret ptr %5
}

; Function Attrs: mustprogress nounwind uwtable
define linkonce_odr hidden noundef ptr @_ZNK17AbstractAssembler12code_sectionEv(ptr noundef nonnull align 8 dereferenceable(24) %0) #1 comdat align 2 {
  %2 = alloca ptr, align 8
  store ptr %0, ptr %2, align 8
  %3 = load ptr, ptr %2, align 8
  %4 = getelementptr inbounds %class.AbstractAssembler, ptr %3, i32 0, i32 1
  %5 = load ptr, ptr %4, align 8
  ret ptr %5
}

; Function Attrs: mustprogress nounwind uwtable
define linkonce_odr hidden noundef ptr @_ZNK17AbstractAssembler2pcEv(ptr noundef nonnull align 8 dereferenceable(24) %0) #1 comdat align 2 {
  %2 = alloca ptr, align 8
  store ptr %0, ptr %2, align 8
  %3 = load ptr, ptr %2, align 8
  %4 = call noundef ptr @_ZNK17AbstractAssembler12code_sectionEv(ptr noundef nonnull align 8 dereferenceable(24) %3)
  %5 = call noundef ptr @_ZNK11CodeSection3endEv(ptr noundef nonnull align 8 dereferenceable(88) %4)
  ret ptr %5
}

; Function Attrs: mustprogress nounwind uwtable
define hidden noundef ptr @_ZN13StubGenerator26generate_vector_custom_i32EPKcN9Assembler12AvxVectorLenEiiiiiiiiiiiiiiii(ptr noundef nonnull align 8 dereferenceable(24) %0, ptr noundef %1, i32 noundef %2, i32 noundef %3, i32 noundef %4, i32 noundef %5, i32 noundef %6, i32 noundef %7, i32 noundef %8, i32 noundef %9, i32 noundef %10, i32 noundef %11, i32 noundef %12, i32 noundef %13, i32 noundef %14, i32 noundef %15, i32 noundef %16, i32 noundef %17, i32 noundef %18) #1 align 2 {
  %20 = alloca ptr, align 8
  %21 = alloca ptr, align 8
  %22 = alloca i32, align 4
  %23 = alloca i32, align 4
  %24 = alloca i32, align 4
  %25 = alloca i32, align 4
  %26 = alloca i32, align 4
  %27 = alloca i32, align 4
  %28 = alloca i32, align 4
  %29 = alloca i32, align 4
  %30 = alloca i32, align 4
  %31 = alloca i32, align 4
  %32 = alloca i32, align 4
  %33 = alloca i32, align 4
  %34 = alloca i32, align 4
  %35 = alloca i32, align 4
  %36 = alloca i32, align 4
  %37 = alloca i32, align 4
  %38 = alloca i32, align 4
  %39 = alloca %class.StubCodeMark, align 8
  %40 = alloca ptr, align 8
  store ptr %0, ptr %20, align 8
  store ptr %1, ptr %21, align 8
  store i32 %2, ptr %22, align 4
  store i32 %3, ptr %23, align 4
  store i32 %4, ptr %24, align 4
  store i32 %5, ptr %25, align 4
  store i32 %6, ptr %26, align 4
  store i32 %7, ptr %27, align 4
  store i32 %8, ptr %28, align 4
  store i32 %9, ptr %29, align 4
  store i32 %10, ptr %30, align 4
  store i32 %11, ptr %31, align 4
  store i32 %12, ptr %32, align 4
  store i32 %13, ptr %33, align 4
  store i32 %14, ptr %34, align 4
  store i32 %15, ptr %35, align 4
  store i32 %16, ptr %36, align 4
  store i32 %17, ptr %37, align 4
  store i32 %18, ptr %38, align 4
  %41 = load ptr, ptr %20, align 8
  %42 = getelementptr inbounds %class.StubCodeGenerator, ptr %41, i32 0, i32 2
  %43 = load ptr, ptr %42, align 8
  %44 = load i64, ptr @CodeEntryAlignment, align 8
  %45 = trunc i64 %44 to i32
  call void @_ZN14MacroAssembler5alignEj(ptr noundef nonnull align 8 dereferenceable(40) %43, i32 noundef %45)
  %46 = load ptr, ptr %21, align 8
  call void @_ZN12StubCodeMarkC1EP17StubCodeGeneratorPKcS3_(ptr noundef nonnull align 8 dereferenceable(16) %39, ptr noundef %41, ptr noundef @.str, ptr noundef %46)
  %47 = getelementptr inbounds %class.StubCodeGenerator, ptr %41, i32 0, i32 2
  %48 = load ptr, ptr %47, align 8
  %49 = call noundef ptr @_ZNK17AbstractAssembler2pcEv(ptr noundef nonnull align 8 dereferenceable(24) %48)
  store ptr %49, ptr %40, align 8
  %50 = getelementptr inbounds %class.StubCodeGenerator, ptr %41, i32 0, i32 2
  %51 = load ptr, ptr %50, align 8
  %52 = load i32, ptr %23, align 4
  call void @_ZN9Assembler9emit_dataEiN9relocInfo9relocTypeEi(ptr noundef nonnull align 8 dereferenceable(40) %51, i32 noundef %52, i32 noundef 0, i32 noundef 0)
  %53 = getelementptr inbounds %class.StubCodeGenerator, ptr %41, i32 0, i32 2
  %54 = load ptr, ptr %53, align 8
  %55 = load i32, ptr %24, align 4
  call void @_ZN9Assembler9emit_dataEiN9relocInfo9relocTypeEi(ptr noundef nonnull align 8 dereferenceable(40) %54, i32 noundef %55, i32 noundef 0, i32 noundef 0)
  %56 = getelementptr inbounds %class.StubCodeGenerator, ptr %41, i32 0, i32 2
  %57 = load ptr, ptr %56, align 8
  %58 = load i32, ptr %25, align 4
  call void @_ZN9Assembler9emit_dataEiN9relocInfo9relocTypeEi(ptr noundef nonnull align 8 dereferenceable(40) %57, i32 noundef %58, i32 noundef 0, i32 noundef 0)
  %59 = getelementptr inbounds %class.StubCodeGenerator, ptr %41, i32 0, i32 2
  %60 = load ptr, ptr %59, align 8
  %61 = load i32, ptr %26, align 4
  call void @_ZN9Assembler9emit_dataEiN9relocInfo9relocTypeEi(ptr noundef nonnull align 8 dereferenceable(40) %60, i32 noundef %61, i32 noundef 0, i32 noundef 0)
  %62 = load i32, ptr %22, align 4
  %63 = icmp sge i32 %62, 1
  br i1 %63, label %64, label %105

64:                                               ; preds = %19
  %65 = getelementptr inbounds %class.StubCodeGenerator, ptr %41, i32 0, i32 2
  %66 = load ptr, ptr %65, align 8
  %67 = load i32, ptr %27, align 4
  call void @_ZN9Assembler9emit_dataEiN9relocInfo9relocTypeEi(ptr noundef nonnull align 8 dereferenceable(40) %66, i32 noundef %67, i32 noundef 0, i32 noundef 0)
  %68 = getelementptr inbounds %class.StubCodeGenerator, ptr %41, i32 0, i32 2
  %69 = load ptr, ptr %68, align 8
  %70 = load i32, ptr %28, align 4
  call void @_ZN9Assembler9emit_dataEiN9relocInfo9relocTypeEi(ptr noundef nonnull align 8 dereferenceable(40) %69, i32 noundef %70, i32 noundef 0, i32 noundef 0)
  %71 = getelementptr inbounds %class.StubCodeGenerator, ptr %41, i32 0, i32 2
  %72 = load ptr, ptr %71, align 8
  %73 = load i32, ptr %29, align 4
  call void @_ZN9Assembler9emit_dataEiN9relocInfo9relocTypeEi(ptr noundef nonnull align 8 dereferenceable(40) %72, i32 noundef %73, i32 noundef 0, i32 noundef 0)
  %74 = getelementptr inbounds %class.StubCodeGenerator, ptr %41, i32 0, i32 2
  %75 = load ptr, ptr %74, align 8
  %76 = load i32, ptr %30, align 4
  call void @_ZN9Assembler9emit_dataEiN9relocInfo9relocTypeEi(ptr noundef nonnull align 8 dereferenceable(40) %75, i32 noundef %76, i32 noundef 0, i32 noundef 0)
  %77 = load i32, ptr %22, align 4
  %78 = icmp sge i32 %77, 2
  br i1 %78, label %79, label %104

79:                                               ; preds = %64
  %80 = getelementptr inbounds %class.StubCodeGenerator, ptr %41, i32 0, i32 2
  %81 = load ptr, ptr %80, align 8
  %82 = load i32, ptr %31, align 4
  call void @_ZN9Assembler9emit_dataEiN9relocInfo9relocTypeEi(ptr noundef nonnull align 8 dereferenceable(40) %81, i32 noundef %82, i32 noundef 0, i32 noundef 0)
  %83 = getelementptr inbounds %class.StubCodeGenerator, ptr %41, i32 0, i32 2
  %84 = load ptr, ptr %83, align 8
  %85 = load i32, ptr %32, align 4
  call void @_ZN9Assembler9emit_dataEiN9relocInfo9relocTypeEi(ptr noundef nonnull align 8 dereferenceable(40) %84, i32 noundef %85, i32 noundef 0, i32 noundef 0)
  %86 = getelementptr inbounds %class.StubCodeGenerator, ptr %41, i32 0, i32 2
  %87 = load ptr, ptr %86, align 8
  %88 = load i32, ptr %33, align 4
  call void @_ZN9Assembler9emit_dataEiN9relocInfo9relocTypeEi(ptr noundef nonnull align 8 dereferenceable(40) %87, i32 noundef %88, i32 noundef 0, i32 noundef 0)
  %89 = getelementptr inbounds %class.StubCodeGenerator, ptr %41, i32 0, i32 2
  %90 = load ptr, ptr %89, align 8
  %91 = load i32, ptr %34, align 4
  call void @_ZN9Assembler9emit_dataEiN9relocInfo9relocTypeEi(ptr noundef nonnull align 8 dereferenceable(40) %90, i32 noundef %91, i32 noundef 0, i32 noundef 0)
  %92 = getelementptr inbounds %class.StubCodeGenerator, ptr %41, i32 0, i32 2
  %93 = load ptr, ptr %92, align 8
  %94 = load i32, ptr %35, align 4
  call void @_ZN9Assembler9emit_dataEiN9relocInfo9relocTypeEi(ptr noundef nonnull align 8 dereferenceable(40) %93, i32 noundef %94, i32 noundef 0, i32 noundef 0)
  %95 = getelementptr inbounds %class.StubCodeGenerator, ptr %41, i32 0, i32 2
  %96 = load ptr, ptr %95, align 8
  %97 = load i32, ptr %36, align 4
  call void @_ZN9Assembler9emit_dataEiN9relocInfo9relocTypeEi(ptr noundef nonnull align 8 dereferenceable(40) %96, i32 noundef %97, i32 noundef 0, i32 noundef 0)
  %98 = getelementptr inbounds %class.StubCodeGenerator, ptr %41, i32 0, i32 2
  %99 = load ptr, ptr %98, align 8
  %100 = load i32, ptr %37, align 4
  call void @_ZN9Assembler9emit_dataEiN9relocInfo9relocTypeEi(ptr noundef nonnull align 8 dereferenceable(40) %99, i32 noundef %100, i32 noundef 0, i32 noundef 0)
  %101 = getelementptr inbounds %class.StubCodeGenerator, ptr %41, i32 0, i32 2
  %102 = load ptr, ptr %101, align 8
  %103 = load i32, ptr %38, align 4
  call void @_ZN9Assembler9emit_dataEiN9relocInfo9relocTypeEi(ptr noundef nonnull align 8 dereferenceable(40) %102, i32 noundef %103, i32 noundef 0, i32 noundef 0)
  br label %104

104:                                              ; preds = %79, %64
  br label %105

105:                                              ; preds = %104, %19
  %106 = load ptr, ptr %40, align 8
  call void @_ZN12StubCodeMarkD1Ev(ptr noundef nonnull align 8 dereferenceable(16) %39) #7
  ret ptr %106
}