; Function Attrs: mustprogress nounwind uwtable
define hidden noundef ptr @_ZN13StubGenerator26generate_vector_custom_i32EPKcN9Assembler12AvxVectorLenEiiiiiiiiiiiiiiii(ptr noundef nonnull align 8 dereferenceable(24) %0, ptr noundef %1, i32 noundef %2, i32 noundef %3, i32 noundef %4, i32 noundef %5, i32 noundef %6, i32 noundef %7, i32 noundef %8, i32 noundef %9, i32 noundef %10, i32 noundef %11, i32 noundef %12, i32 noundef %13, i32 noundef %14, i32 noundef %15, i32 noundef %16, i32 noundef %17, i32 noundef %18) local_unnamed_addr #0 align 2 {
  %20 = alloca %class.StubCodeMark, align 8
  %21 = getelementptr inbounds i8, ptr %0, i64 16
  %22 = load ptr, ptr %21, align 8
  %23 = load i64, ptr @CodeEntryAlignment, align 8
  %24 = trunc i64 %23 to i32
  tail call void @_ZN14MacroAssembler5alignEj(ptr noundef nonnull align 8 dereferenceable(40) %22, i32 noundef %24) #12
  call void @_ZN12StubCodeMarkC1EP17StubCodeGeneratorPKcS3_(ptr noundef nonnull align 8 dereferenceable(16) %20, ptr noundef nonnull %0, ptr noundef nonnull @.str, ptr noundef %1) #12
  %25 = load ptr, ptr %21, align 8
  %26 = getelementptr inbounds i8, ptr %25, i64 8
  %27 = load ptr, ptr %26, align 8
  %28 = getelementptr inbounds i8, ptr %27, i64 16
  %29 = load ptr, ptr %28, align 8
  call void @_ZN9Assembler9emit_dataEiN9relocInfo9relocTypeEi(ptr noundef nonnull align 8 dereferenceable(40) %25, i32 noundef %3, i32 noundef 0, i32 noundef 0) #12
  %30 = load ptr, ptr %21, align 8
  call void @_ZN9Assembler9emit_dataEiN9relocInfo9relocTypeEi(ptr noundef nonnull align 8 dereferenceable(40) %30, i32 noundef %4, i32 noundef 0, i32 noundef 0) #12
  %31 = load ptr, ptr %21, align 8
  call void @_ZN9Assembler9emit_dataEiN9relocInfo9relocTypeEi(ptr noundef nonnull align 8 dereferenceable(40) %31, i32 noundef %5, i32 noundef 0, i32 noundef 0) #12
  %32 = load ptr, ptr %21, align 8
  call void @_ZN9Assembler9emit_dataEiN9relocInfo9relocTypeEi(ptr noundef nonnull align 8 dereferenceable(40) %32, i32 noundef %6, i32 noundef 0, i32 noundef 0) #12
  %33 = icmp sgt i32 %2, 0
  br i1 %33, label %34, label %48

34:                                               ; preds = %19
  %35 = load ptr, ptr %21, align 8
  call void @_ZN9Assembler9emit_dataEiN9relocInfo9relocTypeEi(ptr noundef nonnull align 8 dereferenceable(40) %35, i32 noundef %7, i32 noundef 0, i32 noundef 0) #12
  %36 = load ptr, ptr %21, align 8
  call void @_ZN9Assembler9emit_dataEiN9relocInfo9relocTypeEi(ptr noundef nonnull align 8 dereferenceable(40) %36, i32 noundef %8, i32 noundef 0, i32 noundef 0) #12
  %37 = load ptr, ptr %21, align 8
  call void @_ZN9Assembler9emit_dataEiN9relocInfo9relocTypeEi(ptr noundef nonnull align 8 dereferenceable(40) %37, i32 noundef %9, i32 noundef 0, i32 noundef 0) #12
  %38 = load ptr, ptr %21, align 8
  call void @_ZN9Assembler9emit_dataEiN9relocInfo9relocTypeEi(ptr noundef nonnull align 8 dereferenceable(40) %38, i32 noundef %10, i32 noundef 0, i32 noundef 0) #12
  %.not = icmp eq i32 %2, 1
  br i1 %.not, label %48, label %39

39:                                               ; preds = %34
  %40 = load ptr, ptr %21, align 8
  call void @_ZN9Assembler9emit_dataEiN9relocInfo9relocTypeEi(ptr noundef nonnull align 8 dereferenceable(40) %40, i32 noundef %11, i32 noundef 0, i32 noundef 0) #12
  %41 = load ptr, ptr %21, align 8
  call void @_ZN9Assembler9emit_dataEiN9relocInfo9relocTypeEi(ptr noundef nonnull align 8 dereferenceable(40) %41, i32 noundef %12, i32 noundef 0, i32 noundef 0) #12
  %42 = load ptr, ptr %21, align 8
  call void @_ZN9Assembler9emit_dataEiN9relocInfo9relocTypeEi(ptr noundef nonnull align 8 dereferenceable(40) %42, i32 noundef %13, i32 noundef 0, i32 noundef 0) #12
  %43 = load ptr, ptr %21, align 8
  call void @_ZN9Assembler9emit_dataEiN9relocInfo9relocTypeEi(ptr noundef nonnull align 8 dereferenceable(40) %43, i32 noundef %14, i32 noundef 0, i32 noundef 0) #12
  %44 = load ptr, ptr %21, align 8
  call void @_ZN9Assembler9emit_dataEiN9relocInfo9relocTypeEi(ptr noundef nonnull align 8 dereferenceable(40) %44, i32 noundef %15, i32 noundef 0, i32 noundef 0) #12
  %45 = load ptr, ptr %21, align 8
  call void @_ZN9Assembler9emit_dataEiN9relocInfo9relocTypeEi(ptr noundef nonnull align 8 dereferenceable(40) %45, i32 noundef %16, i32 noundef 0, i32 noundef 0) #12
  %46 = load ptr, ptr %21, align 8
  call void @_ZN9Assembler9emit_dataEiN9relocInfo9relocTypeEi(ptr noundef nonnull align 8 dereferenceable(40) %46, i32 noundef %17, i32 noundef 0, i32 noundef 0) #12
  %47 = load ptr, ptr %21, align 8
  call void @_ZN9Assembler9emit_dataEiN9relocInfo9relocTypeEi(ptr noundef nonnull align 8 dereferenceable(40) %47, i32 noundef %18, i32 noundef 0, i32 noundef 0) #12
  br label %48

48:                                               ; preds = %34, %39, %19
  call void @_ZN12StubCodeMarkD1Ev(ptr noundef nonnull align 8 dereferenceable(16) %20) #12
  ret ptr %29
}